target datalayout = "e-m:e-p270:32:32-p271:32:32-p272:64:64-i64:64-i128:128-f80:128-n8:16:32:64-S128"
target triple = "x86_64-pc-linux-gnu"

%struct._object = type { %union.anon, ptr }
%union.anon = type { i64 }
%struct._typeobject = type { %struct.PyVarObject, ptr, i64, i64, ptr, i64, ptr, ptr, ptr, ptr, ptr, ptr, ptr, ptr, ptr, ptr, ptr, ptr, ptr, i64, ptr, ptr, ptr, ptr, i64, ptr, ptr, ptr, ptr, ptr, ptr, ptr, ptr, ptr, i64, ptr, ptr, ptr, ptr, ptr, ptr, ptr, ptr, ptr, ptr, ptr, i32, ptr, ptr, i8, i16 }
%struct.PyVarObject = type { %struct._object, i64 }
%struct.PyTupleObject = type { %struct.PyVarObject, [1 x ptr] }
%struct.meth_state = type { i32 }

@_Py_NoneStruct = external global %struct._object, align 8
@PyExc_TypeError = external global ptr, align 8
@.str.99 = private unnamed_addr constant [6 x i8] c"twice\00", align 1
@.str.100 = private unnamed_addr constant [38 x i8] c"StateAccessTypeObject.decrement_count\00", align 1
@.str.101 = private unnamed_addr constant [52 x i8] c"decrement_count only takes 'twice' keyword argument\00", align 1

; Function Attrs: inlinehint nounwind uwtable
define internal i64 @Py_SIZE(ptr noundef %0) #4 {
  %2 = alloca ptr, align 8
  store ptr %0, ptr %2, align 8, !tbaa !3
  %3 = load ptr, ptr %2, align 8, !tbaa !3
  %4 = getelementptr inbounds nuw %struct.PyVarObject, ptr %3, i32 0, i32 1
  %5 = load i64, ptr %4, align 8, !tbaa !37
  ret i64 %5
}

; Function Attrs: inlinehint nounwind uwtable
define internal i64 @PyTuple_GET_SIZE(ptr noundef %0) #4 {
  %2 = alloca ptr, align 8
  %3 = alloca ptr, align 8
  store ptr %0, ptr %2, align 8, !tbaa !3
  call void @llvm.lifetime.start.p0(i64 8, ptr %3) #5
  %4 = load ptr, ptr %2, align 8, !tbaa !3
  store ptr %4, ptr %3, align 8, !tbaa !17
  %5 = load ptr, ptr %3, align 8, !tbaa !17
  %6 = call i64 @Py_SIZE(ptr noundef %5)
  call void @llvm.lifetime.end.p0(i64 8, ptr %3) #5
  ret i64 %6
}

; Function Attrs: inlinehint nounwind uwtable
define internal i32 @PyType_HasFeature(ptr noundef %0, i64 noundef %1) #4 {
  %3 = alloca ptr, align 8
  %4 = alloca i64, align 8
  %5 = alloca i64, align 8
  store ptr %0, ptr %3, align 8, !tbaa !26
  store i64 %1, ptr %4, align 8, !tbaa !9
  call void @llvm.lifetime.start.p0(i64 8, ptr %5) #5
  %6 = load ptr, ptr %3, align 8, !tbaa !26
  %7 = getelementptr inbounds nuw %struct._typeobject, ptr %6, i32 0, i32 19
  %8 = load i64, ptr %7, align 8, !tbaa !27
  store i64 %8, ptr %5, align 8, !tbaa !9
  %9 = load i64, ptr %5, align 8, !tbaa !9
  %10 = load i64, ptr %4, align 8, !tbaa !9
  %11 = and i64 %9, %10
  %12 = icmp ne i64 %11, 0
  %13 = zext i1 %12 to i32
  call void @llvm.lifetime.end.p0(i64 8, ptr %5) #5
  ret i32 %13
}

; Function Attrs: inlinehint nounwind uwtable
define internal ptr @_Py_TYPE(ptr noundef %0) #4 {
  %2 = alloca ptr, align 8
  store ptr %0, ptr %2, align 8, !tbaa !3
  %3 = load ptr, ptr %2, align 8, !tbaa !3
  %4 = getelementptr inbounds nuw %struct._object, ptr %3, i32 0, i32 1
  %5 = load ptr, ptr %4, align 8, !tbaa !34
  ret ptr %5
}

; Function Attrs: nounwind uwtable
define internal ptr @_StateAccessType_increment_count_noclinic(ptr noundef %0, ptr noundef %1, ptr noundef %2, i64 noundef %3, ptr noundef %4) #0 {
  %6 = alloca ptr, align 8
  %7 = alloca ptr, align 8
  %8 = alloca ptr, align 8
  %9 = alloca ptr, align 8
  %10 = alloca i64, align 8
  %11 = alloca ptr, align 8
  %12 = alloca i64, align 8
  %13 = alloca i32, align 4
  %14 = alloca ptr, align 8
  store ptr %0, ptr %7, align 8, !tbaa !17
  store ptr %1, ptr %8, align 8, !tbaa !26
  store ptr %2, ptr %9, align 8, !tbaa !18
  store i64 %3, ptr %10, align 8, !tbaa !9
  store ptr %4, ptr %11, align 8, !tbaa !3
  %15 = load i64, ptr %10, align 8, !tbaa !9
  %16 = icmp sle i64 0, %15
  br i1 %16, label %17, label %20

17:                                               ; preds = %5
  %18 = load i64, ptr %10, align 8, !tbaa !9
  %19 = icmp sle i64 %18, 1
  br i1 %19, label %25, label %20

20:                                               ; preds = %17, %5
  %21 = load i64, ptr %10, align 8, !tbaa !9
  %22 = call i32 @_PyArg_CheckPositional(ptr noundef @.str.100, i64 noundef %21, i64 noundef 0, i64 noundef 1)
  %23 = icmp ne i32 %22, 0
  br i1 %23, label %25, label %24

24:                                               ; preds = %20
  store ptr null, ptr %6, align 8
  br label %72

25:                                               ; preds = %20, %17
  call void @llvm.lifetime.start.p0(i64 8, ptr %12) #5
  store i64 1, ptr %12, align 8, !tbaa !9
  %26 = load i64, ptr %10, align 8, !tbaa !9
  %27 = icmp ne i64 %26, 0
  br i1 %27, label %28, label %37

28:                                               ; preds = %25
  %29 = load ptr, ptr %9, align 8, !tbaa !18
  %30 = getelementptr ptr, ptr %29, i64 0
  %31 = load ptr, ptr %30, align 8, !tbaa !3
  %32 = call i64 @PyLong_AsLong(ptr noundef %31)
  store i64 %32, ptr %12, align 8, !tbaa !9
  %33 = call ptr @PyErr_Occurred()
  %34 = icmp ne ptr %33, null
  br i1 %34, label %35, label %36

35:                                               ; preds = %28
  store ptr null, ptr %6, align 8
  store i32 1, ptr %13, align 4
  br label %71

36:                                               ; preds = %28
  br label %37

37:                                               ; preds = %36, %25
  %38 = load ptr, ptr %11, align 8, !tbaa !3
  %39 = icmp ne ptr %38, null
  br i1 %39, label %40, label %61

40:                                               ; preds = %37
  %41 = load ptr, ptr %11, align 8, !tbaa !3
  %42 = call ptr @_Py_TYPE(ptr noundef %41)
  %43 = call i32 @PyType_HasFeature(ptr noundef %42, i64 noundef 67108864)
  %44 = icmp ne i32 %43, 0
  br i1 %44, label %45, label %61

45:                                               ; preds = %40
  %46 = load ptr, ptr %11, align 8, !tbaa !3
  %47 = call i64 @PyTuple_GET_SIZE(ptr noundef %46)
  %48 = icmp sgt i64 %47, 1
  br i1 %48, label %56, label %49

49:                                               ; preds = %45
  %50 = load ptr, ptr %11, align 8, !tbaa !3
  %51 = getelementptr inbounds nuw %struct.PyTupleObject, ptr %50, i32 0, i32 1
  %52 = getelementptr [1 x ptr], ptr %51, i64 0, i64 0
  %53 = load ptr, ptr %52, align 8, !tbaa !3
  %54 = call i32 @PyUnicode_CompareWithASCIIString(ptr noundef %53, ptr noundef @.str.99)
  %55 = icmp ne i32 %54, 0
  br i1 %55, label %56, label %58

56:                                               ; preds = %49, %45
  %57 = load ptr, ptr @PyExc_TypeError, align 8, !tbaa !3
  call void @PyErr_SetString(ptr noundef %57, ptr noundef @.str.101)
  store ptr null, ptr %6, align 8
  store i32 1, ptr %13, align 4
  br label %71

58:                                               ; preds = %49
  %59 = load i64, ptr %12, align 8, !tbaa !9
  %60 = mul i64 %59, 2
  store i64 %60, ptr %12, align 8, !tbaa !9
  br label %61

61:                                               ; preds = %58, %40, %37
  call void @llvm.lifetime.start.p0(i64 8, ptr %14) #5
  %62 = load ptr, ptr %8, align 8, !tbaa !26
  %63 = call ptr @PyType_GetModuleState(ptr noundef %62)
  store ptr %63, ptr %14, align 8, !tbaa !17
  %64 = load i64, ptr %12, align 8, !tbaa !9
  %65 = load ptr, ptr %14, align 8, !tbaa !17
  %66 = getelementptr inbounds nuw %struct.meth_state, ptr %65, i32 0, i32 0
  %67 = load i32, ptr %66, align 4, !tbaa !35
  %68 = sext i32 %67 to i64
  %69 = add i64 %68, %64
  %70 = trunc i64 %69 to i32
  store i32 %70, ptr %66, align 4, !tbaa !35
  store ptr @_Py_NoneStruct, ptr %6, align 8
  store i32 1, ptr %13, align 4
  call void @llvm.lifetime.end.p0(i64 8, ptr %14) #5
  br label %71

71:                                               ; preds = %61, %56, %35
  call void @llvm.lifetime.end.p0(i64 8, ptr %12) #5
  br label %72

72:                                               ; preds = %71, %24
  %73 = load ptr, ptr %6, align 8
  ret ptr %73
}