; Function Attrs: nounwind uwtable
define internal noundef ptr @_StateAccessType_increment_count_noclinic(ptr readnone captures(none) %0, ptr noundef %1, ptr noundef readonly captures(none) %2, i64 noundef %3, ptr noundef readonly %4) #0 {
  %or.cond = icmp ult i64 %3, 2
  br i1 %or.cond, label %8, label %6

6:                                                ; preds = %5
  %7 = tail call i32 @_PyArg_CheckPositional(ptr noundef nonnull @.str.100, i64 noundef %3, i64 noundef 0, i64 noundef 1) #4
  %.not = icmp eq i32 %7, 0
  br i1 %.not, label %33, label %.thread

8:                                                ; preds = %5
  %.not17 = icmp eq i64 %3, 0
  br i1 %.not17, label %12, label %.thread

.thread:                                          ; preds = %6, %8
  %9 = load ptr, ptr %2, align 8, !tbaa !3
  %10 = tail call i64 @PyLong_AsLong(ptr noundef %9) #4
  %11 = tail call ptr @PyErr_Occurred() #4
  %.not18 = icmp eq ptr %11, null
  br i1 %.not18, label %12, label %33

12:                                               ; preds = %.thread, %8
  %.014 = phi i64 [ %10, %.thread ], [ 1, %8 ]
  %.not19 = icmp eq ptr %4, null
  br i1 %.not19, label %28, label %13

13:                                               ; preds = %12
  %14 = getelementptr i8, ptr %4, i64 8
  %.val = load ptr, ptr %14, align 8, !tbaa !19
  %15 = getelementptr i8, ptr %.val, i64 168
  %.val22 = load i64, ptr %15, align 8, !tbaa !20
  %16 = and i64 %.val22, 67108864
  %.not20 = icmp eq i64 %16, 0
  br i1 %.not20, label %28, label %17

17:                                               ; preds = %13
  %18 = getelementptr i8, ptr %4, i64 16
  %.val23 = load i64, ptr %18, align 8, !tbaa !28
  %19 = icmp sgt i64 %.val23, 1
  br i1 %19, label %24, label %20

20:                                               ; preds = %17
  %21 = getelementptr inbounds nuw i8, ptr %4, i64 24
  %22 = load ptr, ptr %21, align 8, !tbaa !3
  %23 = tail call i32 @PyUnicode_CompareWithASCIIString(ptr noundef %22, ptr noundef nonnull @.str.99) #4
  %.not21 = icmp eq i32 %23, 0
  br i1 %.not21, label %26, label %24

24:                                               ; preds = %20, %17
  %25 = load ptr, ptr @PyExc_TypeError, align 8, !tbaa !3
  tail call void @PyErr_SetString(ptr noundef %25, ptr noundef nonnull @.str.101) #4
  br label %33

26:                                               ; preds = %20
  %27 = shl i64 %.014, 1
  br label %28

28:                                               ; preds = %26, %13, %12
  %.115 = phi i64 [ %27, %26 ], [ %.014, %13 ], [ %.014, %12 ]
  %29 = tail call ptr @PyType_GetModuleState(ptr noundef %1) #4
  %30 = load i32, ptr %29, align 4, !tbaa !29
  %31 = trunc i64 %.115 to i32
  %32 = add i32 %30, %31
  store i32 %32, ptr %29, align 4, !tbaa !29
  br label %33

33:                                               ; preds = %24, %28, %.thread, %6
  %.0 = phi ptr [ null, %6 ], [ null, %24 ], [ @_Py_NoneStruct, %28 ], [ null, %.thread ]
  ret ptr %.0
}